; Function Attrs: nounwind uwtable
define noundef ptr @Amap_ManCreateAnd(ptr noundef captures(none) %0, ptr noundef %1, ptr noundef %2) local_unnamed_addr #0 {
  %4 = tail call ptr @Amap_ManSetupObj(ptr noundef %0)
  %5 = load i64, ptr %4, align 8
  %6 = and i64 %5, -8
  %7 = or disjoint i64 %6, 4
  store i64 %7, ptr %4, align 8
  %8 = ptrtoint ptr %1 to i64
  %9 = and i64 %8, -2
  %10 = inttoptr i64 %9 to ptr
  %11 = load i64, ptr %10, align 8
  %12 = trunc i64 %11 to i32
  %13 = trunc i64 %8 to i32
  %14 = and i32 %13, 1
  %15 = lshr i32 %12, 2
  %16 = and i32 %15, 1073741822
  %17 = or disjoint i32 %16, %14
  %18 = getelementptr inbounds nuw i8, ptr %4, i64 24
  store i32 %17, ptr %18, align 8, !tbaa !20
  %19 = getelementptr inbounds nuw i8, ptr %10, i64 16
  %20 = load i32, ptr %19, align 8, !tbaa !29
  %21 = add nsw i32 %20, 1
  store i32 %21, ptr %19, align 8, !tbaa !29
  %22 = ptrtoint ptr %2 to i64
  %23 = and i64 %22, -2
  %24 = inttoptr i64 %23 to ptr
  %25 = load i64, ptr %24, align 8
  %26 = trunc i64 %25 to i32
  %27 = trunc i64 %22 to i32
  %28 = and i32 %27, 1
  %29 = lshr i32 %26, 2
  %30 = and i32 %29, 1073741822
  %31 = or disjoint i32 %30, %28
  %32 = getelementptr inbounds nuw i8, ptr %4, i64 28
  store i32 %31, ptr %32, align 4, !tbaa !20
  %33 = getelementptr inbounds nuw i8, ptr %24, i64 16
  %34 = load i32, ptr %33, align 8, !tbaa !29
  %35 = add nsw i32 %34, 1
  store i32 %35, ptr %33, align 8, !tbaa !29
  %36 = load i64, ptr %10, align 8
  %37 = lshr i64 %36, 61
  %38 = xor i64 %37, %8
  %39 = load i64, ptr %24, align 8
  %40 = lshr i64 %39, 61
  %41 = xor i64 %40, %22
  %42 = and i64 %38, 1
  %43 = and i64 %42, %41
  %44 = load i64, ptr %4, align 8
  %45 = shl nuw nsw i64 %43, 61
  %46 = and i64 %44, -2305843009213693953
  %47 = or disjoint i64 %45, %46
  store i64 %47, ptr %4, align 8
  %48 = getelementptr inbounds nuw i8, ptr %10, i64 8
  %49 = load i32, ptr %48, align 8, !tbaa !33
  %50 = getelementptr inbounds nuw i8, ptr %24, i64 8
  %51 = load i32, ptr %50, align 8, !tbaa !33
  %52 = tail call noundef i32 @llvm.smax.i32(i32 %49, i32 %51)
  %53 = add nsw i32 %52, 1
  %54 = getelementptr inbounds nuw i8, ptr %4, i64 8
  store i32 %53, ptr %54, align 8, !tbaa !33
  %55 = getelementptr inbounds nuw i8, ptr %0, i64 124
  %56 = load i32, ptr %55, align 4, !tbaa !34
  %.not = icmp sgt i32 %56, %52
  br i1 %.not, label %58, label %57

57:                                               ; preds = %3
  store i32 %53, ptr %55, align 4, !tbaa !34
  br label %58

58:                                               ; preds = %57, %3
  %59 = getelementptr inbounds nuw i8, ptr %0, i64 112
  %60 = load i32, ptr %59, align 8, !tbaa !20
  %61 = add nsw i32 %60, 1
  store i32 %61, ptr %59, align 8, !tbaa !20
  ret ptr %4
}